target datalayout = "e-m:e-p270:32:32-p271:32:32-p272:64:64-i64:64-i128:128-f80:128-n8:16:32:64-S128"
target triple = "x86_64-unknown-linux-gnu"

%struct.DBusDisplay = type { %struct.Object, i32, i8, ptr, ptr, %struct.DisplayGLCtx, ptr, ptr, ptr, ptr, ptr, %struct.QemuClipboardPeer, ptr, ptr, [3 x %struct.DBusClipboardRequest], %struct.Notifier }
%struct.Object = type { ptr, ptr, ptr, i32, ptr }
%struct.DisplayGLCtx = type { ptr }
%struct.QemuClipboardPeer = type { ptr, %struct.Notifier, ptr }
%struct.DBusClipboardRequest = type { ptr, i32, i32 }
%struct.Notifier = type { ptr, %struct.anon.0 }
%struct.anon.0 = type { ptr, ptr }
%struct._GError = type { i32, i32, ptr }
%union.anon = type { ptr }

@dbus_display = internal global ptr null, align 8
@.str.3 = private unnamed_addr constant [34 x i8] c"Failed to accept D-Bus client: %s\00", align 1

; Function Attrs: nounwind sspstrong uwtable
define internal void @glib_autoptr_clear_GError(ptr noundef %_ptr) #0 {
entry:
  %_ptr.addr = alloca ptr, align 8
  store ptr %_ptr, ptr %_ptr.addr, align 8
  %0 = load ptr, ptr %_ptr.addr, align 8
  %tobool = icmp ne ptr %0, null
  br i1 %tobool, label %if.then, label %if.end

if.then:                                          ; preds = %entry
  %1 = load ptr, ptr %_ptr.addr, align 8
  call void @g_error_free(ptr noundef %1)
  br label %if.end

if.end:                                           ; preds = %if.then, %entry
  ret void
}

; Function Attrs: nounwind sspstrong uwtable
define internal void @glib_autoptr_clear_GDBusConnection(ptr noundef %_ptr) #0 {
entry:
  %_ptr.addr = alloca ptr, align 8
  store ptr %_ptr, ptr %_ptr.addr, align 8
  %0 = load ptr, ptr %_ptr.addr, align 8
  %tobool = icmp ne ptr %0, null
  br i1 %tobool, label %if.then, label %if.end

if.then:                                          ; preds = %entry
  %1 = load ptr, ptr %_ptr.addr, align 8
  call void @g_object_unref(ptr noundef %1)
  br label %if.end

if.end:                                           ; preds = %if.then, %entry
  ret void
}

; Function Attrs: nounwind sspstrong uwtable
define internal void @glib_autoptr_cleanup_GError(ptr noundef %_ptr) #0 {
entry:
  %_ptr.addr = alloca ptr, align 8
  store ptr %_ptr, ptr %_ptr.addr, align 8
  %0 = load ptr, ptr %_ptr.addr, align 8
  %1 = load ptr, ptr %0, align 8
  call void @glib_autoptr_clear_GError(ptr noundef %1)
  ret void
}

; Function Attrs: nounwind sspstrong uwtable
define internal void @glib_autoptr_cleanup_GDBusConnection(ptr noundef %_ptr) #0 {
entry:
  %_ptr.addr = alloca ptr, align 8
  store ptr %_ptr, ptr %_ptr.addr, align 8
  %0 = load ptr, ptr %_ptr.addr, align 8
  %1 = load ptr, ptr %0, align 8
  call void @glib_autoptr_clear_GDBusConnection(ptr noundef %1)
  ret void
}

; Function Attrs: nounwind sspstrong uwtable
define internal void @dbus_display_add_client_ready(ptr noundef %source_object, ptr noundef %res, ptr noundef %user_data) #0 {
entry:
  %source_object.addr = alloca ptr, align 8
  %res.addr = alloca ptr, align 8
  %user_data.addr = alloca ptr, align 8
  %err = alloca ptr, align 8
  %conn = alloca ptr, align 8
  %_pp = alloca %union.anon, align 8
  %_p = alloca ptr, align 8
  %_destroy = alloca ptr, align 8
  store ptr %source_object, ptr %source_object.addr, align 8
  store ptr %res, ptr %res.addr, align 8
  store ptr %user_data, ptr %user_data.addr, align 8
  store ptr null, ptr %err, align 8
  store ptr null, ptr %conn, align 8
  br label %do.body

do.body:                                          ; preds = %entry
  store ptr @g_object_unref, ptr %_destroy, align 8
  %0 = load ptr, ptr @dbus_display, align 8
  %add_client_cancellable = getelementptr inbounds %struct.DBusDisplay, ptr %0, i32 0, i32 10
  store ptr %add_client_cancellable, ptr %_pp, align 8
  %1 = load ptr, ptr %_pp, align 8
  %2 = load ptr, ptr %1, align 8
  store ptr %2, ptr %_p, align 8
  %3 = load ptr, ptr %_p, align 8
  %tobool = icmp ne ptr %3, null
  br i1 %tobool, label %if.then, label %if.end

if.then:                                          ; preds = %do.body
  %4 = load ptr, ptr %_pp, align 8
  store ptr null, ptr %4, align 8
  %5 = load ptr, ptr %_destroy, align 8
  %6 = load ptr, ptr %_p, align 8
  call void %5(ptr noundef %6)
  br label %if.end

if.end:                                           ; preds = %if.then, %do.body
  br label %do.cond

do.cond:                                          ; preds = %if.end
  br label %do.end

do.end:                                           ; preds = %do.cond
  %7 = load ptr, ptr %res.addr, align 8
  %call = call ptr @g_dbus_connection_new_finish(ptr noundef %7, ptr noundef %err)
  store ptr %call, ptr %conn, align 8
  %8 = load ptr, ptr %conn, align 8
  %tobool1 = icmp ne ptr %8, null
  br i1 %tobool1, label %if.end4, label %if.then2

if.then2:                                         ; preds = %do.end
  %9 = load ptr, ptr %err, align 8
  %message = getelementptr inbounds %struct._GError, ptr %9, i32 0, i32 2
  %10 = load ptr, ptr %message, align 8
  %call3 = call i32 (ptr, ...) @error_printf(ptr noundef @.str.3, ptr noundef %10)
  br label %if.end4

if.end4:                                          ; preds = %if.then2, %do.end
  %11 = load ptr, ptr @dbus_display, align 8
  %server = getelementptr inbounds %struct.DBusDisplay, ptr %11, i32 0, i32 7
  %12 = load ptr, ptr %server, align 8
  %13 = load ptr, ptr %conn, align 8
  call void @g_dbus_object_manager_server_set_connection(ptr noundef %12, ptr noundef %13)
  %14 = load ptr, ptr %conn, align 8
  call void @g_dbus_connection_start_message_processing(ptr noundef %14)
  call void @glib_autoptr_cleanup_GDBusConnection(ptr noundef %conn)
  call void @glib_autoptr_cleanup_GError(ptr noundef %err)
  ret void
}