; Function Attrs: nounwind sspstrong uwtable
define internal void @dbus_display_add_client_ready(ptr readnone captures(none) %source_object, ptr noundef %res, ptr readnone captures(none) %user_data) #0 {
entry:
  %err = alloca ptr, align 8
  store ptr null, ptr %err, align 8
  %0 = load ptr, ptr @dbus_display, align 8
  %add_client_cancellable = getelementptr inbounds nuw i8, ptr %0, i64 104
  %1 = load ptr, ptr %add_client_cancellable, align 8
  %tobool.not = icmp eq ptr %1, null
  br i1 %tobool.not, label %do.end, label %if.then

if.then:                                          ; preds = %entry
  store ptr null, ptr %add_client_cancellable, align 8
  tail call void @g_object_unref(ptr noundef nonnull %1) #5
  br label %do.end

do.end:                                           ; preds = %if.then, %entry
  %call = call ptr @g_dbus_connection_new_finish(ptr noundef %res, ptr noundef nonnull %err) #5
  %tobool1.not = icmp eq ptr %call, null
  br i1 %tobool1.not, label %if.then2, label %if.then.i.i.critedge

if.then2:                                         ; preds = %do.end
  %2 = load ptr, ptr %err, align 8
  %message = getelementptr inbounds nuw i8, ptr %2, i64 8
  %3 = load ptr, ptr %message, align 8
  %call3 = call i32 (ptr, ...) @error_printf(ptr noundef nonnull @.str.3, ptr noundef %3) #5
  %4 = load ptr, ptr @dbus_display, align 8
  %server = getelementptr inbounds nuw i8, ptr %4, i64 80
  %5 = load ptr, ptr %server, align 8
  call void @g_dbus_object_manager_server_set_connection(ptr noundef %5, ptr noundef null) #5
  call void @g_dbus_connection_start_message_processing(ptr noundef null) #5
  br label %glib_autoptr_cleanup_GDBusConnection.exit

if.then.i.i.critedge:                             ; preds = %do.end
  %6 = load ptr, ptr @dbus_display, align 8
  %server.c = getelementptr inbounds nuw i8, ptr %6, i64 80
  %7 = load ptr, ptr %server.c, align 8
  call void @g_dbus_object_manager_server_set_connection(ptr noundef %7, ptr noundef nonnull %call) #5
  call void @g_dbus_connection_start_message_processing(ptr noundef nonnull %call) #5
  call void @g_object_unref(ptr noundef nonnull %call) #5
  br label %glib_autoptr_cleanup_GDBusConnection.exit

glib_autoptr_cleanup_GDBusConnection.exit:        ; preds = %if.then2, %if.then.i.i.critedge
  %err.val = load ptr, ptr %err, align 8
  %tobool.not.i.i3 = icmp eq ptr %err.val, null
  br i1 %tobool.not.i.i3, label %glib_autoptr_cleanup_GError.exit, label %if.then.i.i4

if.then.i.i4:                                     ; preds = %glib_autoptr_cleanup_GDBusConnection.exit
  call void @g_error_free(ptr noundef nonnull %err.val) #5
  br label %glib_autoptr_cleanup_GError.exit

glib_autoptr_cleanup_GError.exit:                 ; preds = %glib_autoptr_cleanup_GDBusConnection.exit, %if.then.i.i4
  ret void
}